target datalayout = "e-m:e-p270:32:32-p271:32:32-p272:64:64-i64:64-i128:128-f80:128-n8:16:32:64-S128"
target triple = "x86_64-pc-linux-gnu"

%"class.ncnn::Mat" = type { ptr, ptr, i64, i32, ptr, i32, i32, i32, i32, i32, i64 }

@stderr = external global ptr, align 8
@.str = private unnamed_addr constant [24 x i8] c"unknown convert type %d\00", align 1
@.str.1 = private unnamed_addr constant [2 x i8] c"\0A\00", align 1
@.str.3 = private unnamed_addr constant [35 x i8] c"roi %d %d %d %d out of image %d %d\00", align 1

; Function Attrs: alwaysinline mustprogress nounwind uwtable
define linkonce_odr hidden void @_ZN4ncnn3MatC2Ev(ptr noundef nonnull align 8 dereferenceable(72) %0) unnamed_addr #5 comdat align 2 {
  %2 = alloca ptr, align 8
  store ptr %0, ptr %2, align 8, !tbaa !25
  %3 = load ptr, ptr %2, align 8
  %4 = getelementptr inbounds nuw %"class.ncnn::Mat", ptr %3, i32 0, i32 0
  store ptr null, ptr %4, align 8, !tbaa !27
  %5 = getelementptr inbounds nuw %"class.ncnn::Mat", ptr %3, i32 0, i32 1
  store ptr null, ptr %5, align 8, !tbaa !30
  %6 = getelementptr inbounds nuw %"class.ncnn::Mat", ptr %3, i32 0, i32 2
  store i64 0, ptr %6, align 8, !tbaa !31
  %7 = getelementptr inbounds nuw %"class.ncnn::Mat", ptr %3, i32 0, i32 3
  store i32 0, ptr %7, align 8, !tbaa !32
  %8 = getelementptr inbounds nuw %"class.ncnn::Mat", ptr %3, i32 0, i32 4
  store ptr null, ptr %8, align 8, !tbaa !33
  %9 = getelementptr inbounds nuw %"class.ncnn::Mat", ptr %3, i32 0, i32 5
  store i32 0, ptr %9, align 8, !tbaa !34
  %10 = getelementptr inbounds nuw %"class.ncnn::Mat", ptr %3, i32 0, i32 6
  store i32 0, ptr %10, align 4, !tbaa !35
  %11 = getelementptr inbounds nuw %"class.ncnn::Mat", ptr %3, i32 0, i32 7
  store i32 0, ptr %11, align 8, !tbaa !36
  %12 = getelementptr inbounds nuw %"class.ncnn::Mat", ptr %3, i32 0, i32 8
  store i32 0, ptr %12, align 4, !tbaa !37
  %13 = getelementptr inbounds nuw %"class.ncnn::Mat", ptr %3, i32 0, i32 9
  store i32 0, ptr %13, align 8, !tbaa !38
  %14 = getelementptr inbounds nuw %"class.ncnn::Mat", ptr %3, i32 0, i32 10
  store i64 0, ptr %14, align 8, !tbaa !39
  ret void
}

; Function Attrs: mustprogress uwtable
define hidden void @_ZN4ncnn3Mat22from_pixels_roi_resizeEPKhiiiiiiiiiPNS_9AllocatorE(ptr dead_on_unwind noalias writable sret(%"class.ncnn::Mat") align 8 %0, ptr noundef %1, i32 noundef %2, i32 noundef %3, i32 noundef %4, i32 noundef %5, i32 noundef %6, i32 noundef %7, i32 noundef %8, i32 noundef %9, i32 noundef %10, ptr noundef %11) #0 align 2 {
  %13 = alloca ptr, align 8
  %14 = alloca ptr, align 8
  %15 = alloca i32, align 4
  %16 = alloca i32, align 4
  %17 = alloca i32, align 4
  %18 = alloca i32, align 4
  %19 = alloca i32, align 4
  %20 = alloca i32, align 4
  %21 = alloca i32, align 4
  %22 = alloca i32, align 4
  %23 = alloca i32, align 4
  %24 = alloca ptr, align 8
  %25 = alloca i32, align 4
  %26 = alloca i32, align 4
  store ptr %0, ptr %13, align 8
  store ptr %1, ptr %14, align 8, !tbaa !4
  store i32 %2, ptr %15, align 4, !tbaa !9
  store i32 %3, ptr %16, align 4, !tbaa !9
  store i32 %4, ptr %17, align 4, !tbaa !9
  store i32 %5, ptr %18, align 4, !tbaa !9
  store i32 %6, ptr %19, align 4, !tbaa !9
  store i32 %7, ptr %20, align 4, !tbaa !9
  store i32 %8, ptr %21, align 4, !tbaa !9
  store i32 %9, ptr %22, align 4, !tbaa !9
  store i32 %10, ptr %23, align 4, !tbaa !9
  store ptr %11, ptr %24, align 8, !tbaa !21
  %27 = load i32, ptr %18, align 4, !tbaa !9
  %28 = icmp slt i32 %27, 0
  br i1 %28, label %50, label %29

29:                                               ; preds = %12
  %30 = load i32, ptr %19, align 4, !tbaa !9
  %31 = icmp slt i32 %30, 0
  br i1 %31, label %50, label %32

32:                                               ; preds = %29
  %33 = load i32, ptr %20, align 4, !tbaa !9
  %34 = icmp sle i32 %33, 0
  br i1 %34, label %50, label %35

35:                                               ; preds = %32
  %36 = load i32, ptr %21, align 4, !tbaa !9
  %37 = icmp sle i32 %36, 0
  br i1 %37, label %50, label %38

38:                                               ; preds = %35
  %39 = load i32, ptr %18, align 4, !tbaa !9
  %40 = load i32, ptr %20, align 4, !tbaa !9
  %41 = add nsw i32 %39, %40
  %42 = load i32, ptr %16, align 4, !tbaa !9
  %43 = icmp sgt i32 %41, %42
  br i1 %43, label %50, label %44

44:                                               ; preds = %38
  %45 = load i32, ptr %19, align 4, !tbaa !9
  %46 = load i32, ptr %21, align 4, !tbaa !9
  %47 = add nsw i32 %45, %46
  %48 = load i32, ptr %17, align 4, !tbaa !9
  %49 = icmp sgt i32 %47, %48
  br i1 %49, label %50, label %63

50:                                               ; preds = %44, %38, %35, %32, %29, %12
  br label %51

51:                                               ; preds = %50
  %52 = load ptr, ptr @stderr, align 8, !tbaa !23
  %53 = load i32, ptr %18, align 4, !tbaa !9
  %54 = load i32, ptr %19, align 4, !tbaa !9
  %55 = load i32, ptr %20, align 4, !tbaa !9
  %56 = load i32, ptr %21, align 4, !tbaa !9
  %57 = load i32, ptr %16, align 4, !tbaa !9
  %58 = load i32, ptr %17, align 4, !tbaa !9
  %59 = call i32 (ptr, ptr, ...) @fprintf(ptr noundef %52, ptr noundef @.str.3, i32 noundef %53, i32 noundef %54, i32 noundef %55, i32 noundef %56, i32 noundef %57, i32 noundef %58) #9
  %60 = load ptr, ptr @stderr, align 8, !tbaa !23
  %61 = call i32 (ptr, ptr, ...) @fprintf(ptr noundef %60, ptr noundef @.str.1) #9
  br label %62

62:                                               ; preds = %51
  call void @_ZN4ncnn3MatC2Ev(ptr noundef nonnull align 8 dereferenceable(72) %0)
  br label %146

63:                                               ; preds = %44
  call void @llvm.lifetime.start.p0(i64 4, ptr %25) #9
  %64 = load i32, ptr %15, align 4, !tbaa !9
  %65 = and i32 %64, 65535
  store i32 %65, ptr %25, align 4, !tbaa !9
  %66 = load i32, ptr %25, align 4, !tbaa !9
  %67 = icmp eq i32 %66, 1
  br i1 %67, label %71, label %68

68:                                               ; preds = %63
  %69 = load i32, ptr %25, align 4, !tbaa !9
  %70 = icmp eq i32 %69, 2
  br i1 %70, label %71, label %89

71:                                               ; preds = %68, %63
  %72 = load ptr, ptr %14, align 8, !tbaa !4
  %73 = load i32, ptr %19, align 4, !tbaa !9
  %74 = load i32, ptr %16, align 4, !tbaa !9
  %75 = mul nsw i32 %73, %74
  %76 = load i32, ptr %18, align 4, !tbaa !9
  %77 = add nsw i32 %75, %76
  %78 = mul nsw i32 %77, 3
  %79 = sext i32 %78 to i64
  %80 = getelementptr inbounds i8, ptr %72, i64 %79
  %81 = load i32, ptr %15, align 4, !tbaa !9
  %82 = load i32, ptr %20, align 4, !tbaa !9
  %83 = load i32, ptr %21, align 4, !tbaa !9
  %84 = load i32, ptr %16, align 4, !tbaa !9
  %85 = mul nsw i32 %84, 3
  %86 = load i32, ptr %22, align 4, !tbaa !9
  %87 = load i32, ptr %23, align 4, !tbaa !9
  %88 = load ptr, ptr %24, align 8, !tbaa !21
  call void @_ZN4ncnn3Mat18from_pixels_resizeEPKhiiiiiiPNS_9AllocatorE(ptr dead_on_unwind writable sret(%"class.ncnn::Mat") align 8 %0, ptr noundef %80, i32 noundef %81, i32 noundef %82, i32 noundef %83, i32 noundef %85, i32 noundef %86, i32 noundef %87, ptr noundef %88)
  store i32 1, ptr %26, align 4
  br label %145

89:                                               ; preds = %68
  %90 = load i32, ptr %25, align 4, !tbaa !9
  %91 = icmp eq i32 %90, 3
  br i1 %91, label %92, label %110

92:                                               ; preds = %89
  %93 = load ptr, ptr %14, align 8, !tbaa !4
  %94 = load i32, ptr %19, align 4, !tbaa !9
  %95 = load i32, ptr %16, align 4, !tbaa !9
  %96 = mul nsw i32 %94, %95
  %97 = load i32, ptr %18, align 4, !tbaa !9
  %98 = add nsw i32 %96, %97
  %99 = mul nsw i32 %98, 1
  %100 = sext i32 %99 to i64
  %101 = getelementptr inbounds i8, ptr %93, i64 %100
  %102 = load i32, ptr %15, align 4, !tbaa !9
  %103 = load i32, ptr %20, align 4, !tbaa !9
  %104 = load i32, ptr %21, align 4, !tbaa !9
  %105 = load i32, ptr %16, align 4, !tbaa !9
  %106 = mul nsw i32 %105, 1
  %107 = load i32, ptr %22, align 4, !tbaa !9
  %108 = load i32, ptr %23, align 4, !tbaa !9
  %109 = load ptr, ptr %24, align 8, !tbaa !21
  call void @_ZN4ncnn3Mat18from_pixels_resizeEPKhiiiiiiPNS_9AllocatorE(ptr dead_on_unwind writable sret(%"class.ncnn::Mat") align 8 %0, ptr noundef %101, i32 noundef %102, i32 noundef %103, i32 noundef %104, i32 noundef %106, i32 noundef %107, i32 noundef %108, ptr noundef %109)
  store i32 1, ptr %26, align 4
  br label %145

110:                                              ; preds = %89
  %111 = load i32, ptr %25, align 4, !tbaa !9
  %112 = icmp eq i32 %111, 4
  br i1 %112, label %116, label %113

113:                                              ; preds = %110
  %114 = load i32, ptr %25, align 4, !tbaa !9
  %115 = icmp eq i32 %114, 5
  br i1 %115, label %116, label %134

116:                                              ; preds = %113, %110
  %117 = load ptr, ptr %14, align 8, !tbaa !4
  %118 = load i32, ptr %19, align 4, !tbaa !9
  %119 = load i32, ptr %16, align 4, !tbaa !9
  %120 = mul nsw i32 %118, %119
  %121 = load i32, ptr %18, align 4, !tbaa !9
  %122 = add nsw i32 %120, %121
  %123 = mul nsw i32 %122, 4
  %124 = sext i32 %123 to i64
  %125 = getelementptr inbounds i8, ptr %117, i64 %124
  %126 = load i32, ptr %15, align 4, !tbaa !9
  %127 = load i32, ptr %20, align 4, !tbaa !9
  %128 = load i32, ptr %21, align 4, !tbaa !9
  %129 = load i32, ptr %16, align 4, !tbaa !9
  %130 = mul nsw i32 %129, 4
  %131 = load i32, ptr %22, align 4, !tbaa !9
  %132 = load i32, ptr %23, align 4, !tbaa !9
  %133 = load ptr, ptr %24, align 8, !tbaa !21
  call void @_ZN4ncnn3Mat18from_pixels_resizeEPKhiiiiiiPNS_9AllocatorE(ptr dead_on_unwind writable sret(%"class.ncnn::Mat") align 8 %0, ptr noundef %125, i32 noundef %126, i32 noundef %127, i32 noundef %128, i32 noundef %130, i32 noundef %131, i32 noundef %132, ptr noundef %133)
  store i32 1, ptr %26, align 4
  br label %145

134:                                              ; preds = %113
  br label %135

135:                                              ; preds = %134
  br label %136

136:                                              ; preds = %135
  br label %137

137:                                              ; preds = %136
  %138 = load ptr, ptr @stderr, align 8, !tbaa !23
  %139 = load i32, ptr %15, align 4, !tbaa !9
  %140 = call i32 (ptr, ptr, ...) @fprintf(ptr noundef %138, ptr noundef @.str, i32 noundef %139) #9
  %141 = load ptr, ptr @stderr, align 8, !tbaa !23
  %142 = call i32 (ptr, ptr, ...) @fprintf(ptr noundef %141, ptr noundef @.str.1) #9
  br label %143

143:                                              ; preds = %137
  br label %144

144:                                              ; preds = %143
  call void @_ZN4ncnn3MatC2Ev(ptr noundef nonnull align 8 dereferenceable(72) %0)
  store i32 1, ptr %26, align 4
  br label %145

145:                                              ; preds = %144, %116, %92, %71
  call void @llvm.lifetime.end.p0(i64 4, ptr %25) #9
  br label %146

146:                                              ; preds = %145, %62
  ret void
}