; Function Attrs: mustprogress uwtable
define hidden void @_ZN4ncnn3Mat22from_pixels_roi_resizeEPKhiiiiiiiiiPNS_9AllocatorE(ptr dead_on_unwind noalias writable sret(%"class.ncnn::Mat") align 8 %0, ptr noundef %1, i32 noundef %2, i32 noundef %3, i32 noundef %4, i32 noundef %5, i32 noundef %6, i32 noundef %7, i32 noundef %8, i32 noundef %9, i32 noundef %10, ptr noundef %11) local_unnamed_addr #2 align 2 {
  %13 = or i32 %6, %5
  %or.cond = icmp slt i32 %13, 0
  %14 = icmp slt i32 %7, 1
  %or.cond3 = or i1 %or.cond, %14
  %15 = icmp slt i32 %8, 1
  %or.cond5 = or i1 %or.cond3, %15
  %16 = add nuw nsw i32 %7, %5
  %17 = icmp sgt i32 %16, %3
  %or.cond71 = select i1 %or.cond5, i1 true, i1 %17
  %18 = add nuw nsw i32 %8, %6
  %19 = icmp sgt i32 %18, %4
  %or.cond73 = select i1 %or.cond71, i1 true, i1 %19
  br i1 %or.cond73, label %20, label %26

20:                                               ; preds = %12
  %21 = load ptr, ptr @stderr, align 8, !tbaa !14
  %22 = tail call i32 (ptr, ptr, ...) @fprintf(ptr noundef %21, ptr noundef nonnull @.str.3, i32 noundef %5, i32 noundef %6, i32 noundef %7, i32 noundef %8, i32 noundef %3, i32 noundef %4) #13
  %23 = load ptr, ptr @stderr, align 8, !tbaa !14
  %fputc69 = tail call i32 @fputc(i32 10, ptr %23)
  %24 = getelementptr inbounds nuw i8, ptr %0, i64 32
  %25 = getelementptr inbounds nuw i8, ptr %0, i64 64
  store i64 0, ptr %25, align 8, !tbaa !17
  tail call void @llvm.memset.p0.i64(ptr noundef nonnull align 8 dereferenceable(28) %0, i8 0, i64 28, i1 false)
  tail call void @llvm.memset.p0.i64(ptr noundef nonnull align 8 dereferenceable(28) %24, i8 0, i64 28, i1 false)
  br label %58

26:                                               ; preds = %12
  %27 = and i32 %2, 65535
  %28 = add nsw i32 %27, -1
  %or.cond7 = icmp ult i32 %28, 2
  br i1 %or.cond7, label %29, label %36

29:                                               ; preds = %26
  %30 = mul nsw i32 %6, %3
  %31 = add nuw nsw i32 %30, %5
  %32 = mul nsw i32 %31, 3
  %33 = zext nneg i32 %32 to i64
  %34 = getelementptr inbounds nuw i8, ptr %1, i64 %33
  %35 = mul nsw i32 %3, 3
  tail call void @_ZN4ncnn3Mat18from_pixels_resizeEPKhiiiiiiPNS_9AllocatorE(ptr dead_on_unwind writable sret(%"class.ncnn::Mat") align 8 %0, ptr noundef %34, i32 noundef %2, i32 noundef %7, i32 noundef %8, i32 noundef %35, i32 noundef %9, i32 noundef %10, ptr noundef %11)
  br label %58

36:                                               ; preds = %26
  %37 = icmp eq i32 %27, 3
  br i1 %37, label %38, label %43

38:                                               ; preds = %36
  %39 = mul nsw i32 %6, %3
  %40 = add nuw nsw i32 %39, %5
  %41 = zext nneg i32 %40 to i64
  %42 = getelementptr inbounds nuw i8, ptr %1, i64 %41
  tail call void @_ZN4ncnn3Mat18from_pixels_resizeEPKhiiiiiiPNS_9AllocatorE(ptr dead_on_unwind writable sret(%"class.ncnn::Mat") align 8 %0, ptr noundef %42, i32 noundef %2, i32 noundef %7, i32 noundef %8, i32 noundef %3, i32 noundef %9, i32 noundef %10, ptr noundef %11)
  br label %58

43:                                               ; preds = %36
  %44 = and i32 %2, 65534
  %or.cond9 = icmp eq i32 %44, 4
  br i1 %or.cond9, label %45, label %52

45:                                               ; preds = %43
  %46 = mul nsw i32 %6, %3
  %47 = add nuw nsw i32 %46, %5
  %48 = shl nsw i32 %47, 2
  %49 = zext nneg i32 %48 to i64
  %50 = getelementptr inbounds nuw i8, ptr %1, i64 %49
  %51 = shl nsw i32 %3, 2
  tail call void @_ZN4ncnn3Mat18from_pixels_resizeEPKhiiiiiiPNS_9AllocatorE(ptr dead_on_unwind writable sret(%"class.ncnn::Mat") align 8 %0, ptr noundef %50, i32 noundef %2, i32 noundef %7, i32 noundef %8, i32 noundef %51, i32 noundef %9, i32 noundef %10, ptr noundef %11)
  br label %58

52:                                               ; preds = %43
  %53 = load ptr, ptr @stderr, align 8, !tbaa !14
  %54 = tail call i32 (ptr, ptr, ...) @fprintf(ptr noundef %53, ptr noundef nonnull @.str, i32 noundef %2) #13
  %55 = load ptr, ptr @stderr, align 8, !tbaa !14
  %fputc = tail call i32 @fputc(i32 10, ptr %55)
  %56 = getelementptr inbounds nuw i8, ptr %0, i64 32
  %57 = getelementptr inbounds nuw i8, ptr %0, i64 64
  store i64 0, ptr %57, align 8, !tbaa !17
  tail call void @llvm.memset.p0.i64(ptr noundef nonnull align 8 dereferenceable(28) %0, i8 0, i64 28, i1 false)
  tail call void @llvm.memset.p0.i64(ptr noundef nonnull align 8 dereferenceable(28) %56, i8 0, i64 28, i1 false)
  br label %58

58:                                               ; preds = %29, %38, %45, %52, %20
  ret void
}